; Function Attrs: mustprogress uwtable
define internal noundef nonnull ptr @_ZN7testing12_GLOBAL__N_124ParameterizedTestFactoryIN11opencv_test36Layer_NaryEltwise_NCHW_NCHW_sum_TestEE10CreateTestEv(ptr noundef nonnull align 8 dereferenceable(16) %0) unnamed_addr #4 align 2 personality ptr @__gxx_personality_v0 {
  %2 = getelementptr inbounds nuw i8, ptr %0, i64 8
  store ptr %2, ptr @_ZN7testing8internal12g_parameter_E, align 8, !tbaa !617
  %3 = tail call noalias noundef nonnull dereferenceable(280) ptr @_Znwm(i64 noundef 280) #31
  invoke void @_ZN4perf8TestBaseC2Ev(ptr noundef nonnull align 8 dereferenceable(273) %3)
          to label %4 unwind label %11

4:                                                ; preds = %1
  %5 = getelementptr inbounds nuw i8, ptr %3, i64 248
  %6 = getelementptr inbounds nuw i8, ptr %3, i64 256
  store i32 8, ptr %6, align 8, !tbaa !55
  %7 = getelementptr inbounds nuw i8, ptr %3, i64 260
  store i32 256, ptr %7, align 4, !tbaa !56
  %8 = getelementptr inbounds nuw i8, ptr %3, i64 264
  store i32 128, ptr %8, align 8, !tbaa !57
  %9 = getelementptr inbounds nuw i8, ptr %3, i64 268
  store i32 100, ptr %9, align 4, !tbaa !58
  store ptr getelementptr inbounds nuw inrange(-16, 56) (i8, ptr @_ZTVN11opencv_test36Layer_NaryEltwise_NCHW_NCHW_sum_TestE, i64 16), ptr %3, align 8, !tbaa !24
  store ptr getelementptr inbounds nuw inrange(-16, 16) (i8, ptr @_ZTVN11opencv_test36Layer_NaryEltwise_NCHW_NCHW_sum_TestE, i64 88), ptr %5, align 8, !tbaa !24
  %10 = getelementptr inbounds nuw i8, ptr %3, i64 272
  store i8 0, ptr %10, align 8, !tbaa !130
  ret ptr %3

11:                                               ; preds = %1
  %12 = landingpad { ptr, i32 }
          cleanup
  tail call void @_ZdlPv(ptr noundef nonnull %3) #32
  resume { ptr, i32 } %12
}